target datalayout = "e-m:e-p270:32:32-p271:32:32-p272:64:64-i64:64-i128:128-f80:128-n8:16:32:64-S128"
target triple = "x86_64-pc-linux-gnu"

%class.Metadata = type { ptr }
%class.OopHandle = type { ptr }
%class.AccessFlags = type { i32 }
%class.InstanceKlass = type { %class.Klass.base, ptr, ptr, ptr, ptr, ptr, ptr, ptr, ptr, ptr, ptr, i32, i32, i32, i32, i16, i16, i16, i16, i8, i8, i8, i8, %class.InstanceKlassFlags, ptr, ptr, ptr, ptr, ptr, i64, ptr, ptr, ptr, ptr, ptr, ptr, ptr, ptr, ptr, ptr, ptr, ptr, ptr }
%class.Klass.base = type <{ %class.Metadata, i32, i32, i32, i32, ptr, ptr, ptr, [8 x ptr], %class.OopHandle, ptr, ptr, ptr, ptr, ptr, i32, %class.AccessFlags, i64, i64, i8, i8, i16, i16, [2 x i8], i32 }>
%class.InstanceKlassFlags = type <{ i16, i8, i8 }>
%class.Array.5 = type { i32, [1 x ptr] }
%class.Method = type { %class.Metadata, ptr, ptr, ptr, ptr, %class.AccessFlags, i32, %class.MethodFlags, i16, %class.JfrTraceFlag, ptr, ptr, ptr, ptr }
%class.MethodFlags = type { i32 }
%class.JfrTraceFlag = type { i16 }
%class.ConstMethod = type <{ i64, ptr, ptr, i32, %class.ConstMethodFlags, i8, i8, i16, i16, i16, i16, i16, i16, i16, i16, i16, [4 x i8] }>
%class.ConstMethodFlags = type { i32 }
%class.anon.114 = type { i8 }

@_ZN13InstanceKlass29_disable_method_binary_searchE = hidden global i8 0, align 1

; Function Attrs: mustprogress nounwind uwtable
define linkonce_odr hidden noundef ptr @_ZNK12ConstantPool4baseEv(ptr noundef nonnull align 8 dereferenceable(68) %0) #1 comdat align 2 {
  %2 = alloca ptr, align 8
  store ptr %0, ptr %2, align 8
  %3 = load ptr, ptr %2, align 8
  %4 = getelementptr inbounds i8, ptr %3, i64 72
  ret ptr %4
}

; Function Attrs: mustprogress nounwind uwtable
define linkonce_odr hidden noundef i64 @_ZZN5ArrayIP6MethodE20base_offset_in_bytesEvENKUlvE_clEv(ptr noundef nonnull align 1 dereferenceable(1) %0) #1 comdat align 2 {
  %2 = alloca ptr, align 8
  %3 = alloca [16 x i8], align 16
  %4 = alloca ptr, align 8
  %5 = alloca ptr, align 8
  store ptr %0, ptr %2, align 8
  %6 = getelementptr inbounds [16 x i8], ptr %3, i64 0, i64 0
  store ptr %6, ptr %4, align 8
  %7 = load ptr, ptr %4, align 8
  %8 = getelementptr inbounds %class.Array.5, ptr %7, i32 0, i32 1
  store ptr %8, ptr %5, align 8
  %9 = load ptr, ptr %5, align 8
  %10 = getelementptr inbounds [16 x i8], ptr %3, i64 0, i64 0
  %11 = ptrtoint ptr %9 to i64
  %12 = ptrtoint ptr %10 to i64
  %13 = sub i64 %11, %12
  ret i64 %13
}

; Function Attrs: mustprogress nounwind uwtable
define linkonce_odr hidden noundef ptr @_ZNK12ConstantPool14symbol_at_addrEi(ptr noundef nonnull align 8 dereferenceable(68) %0, i32 noundef %1) #1 comdat align 2 {
  %3 = alloca ptr, align 8
  %4 = alloca i32, align 4
  store ptr %0, ptr %3, align 8
  store i32 %1, ptr %4, align 4
  %5 = load ptr, ptr %3, align 8
  %6 = call noundef ptr @_ZNK12ConstantPool4baseEv(ptr noundef nonnull align 8 dereferenceable(68) %5)
  %7 = load i32, ptr %4, align 4
  %8 = sext i32 %7 to i64
  %9 = getelementptr inbounds i64, ptr %6, i64 %8
  ret ptr %9
}

; Function Attrs: mustprogress nounwind uwtable
define linkonce_odr hidden noundef zeroext i16 @_ZNK11ConstMethod10name_indexEv(ptr noundef nonnull align 8 dereferenceable(52) %0) #1 comdat align 2 {
  %2 = alloca ptr, align 8
  store ptr %0, ptr %2, align 8
  %3 = load ptr, ptr %2, align 8
  %4 = getelementptr inbounds %class.ConstMethod, ptr %3, i32 0, i32 8
  %5 = load i16, ptr %4, align 4
  ret i16 %5
}

; Function Attrs: mustprogress nounwind uwtable
define linkonce_odr hidden noundef ptr @_ZNK11ConstMethod9constantsEv(ptr noundef nonnull align 8 dereferenceable(52) %0) #1 comdat align 2 {
  %2 = alloca ptr, align 8
  store ptr %0, ptr %2, align 8
  %3 = load ptr, ptr %2, align 8
  %4 = getelementptr inbounds %class.ConstMethod, ptr %3, i32 0, i32 1
  %5 = load ptr, ptr %4, align 8
  ret ptr %5
}

; Function Attrs: mustprogress nounwind uwtable
define linkonce_odr hidden noundef ptr @_ZNK6Method11constMethodEv(ptr noundef nonnull align 8 dereferenceable(88) %0) #1 comdat align 2 {
  %2 = alloca ptr, align 8
  store ptr %0, ptr %2, align 8
  %3 = load ptr, ptr %2, align 8
  %4 = getelementptr inbounds %class.Method, ptr %3, i32 0, i32 1
  %5 = load ptr, ptr %4, align 8
  ret ptr %5
}

; Function Attrs: mustprogress nounwind uwtable
define linkonce_odr hidden noundef i32 @_ZN5ArrayIP6MethodE20base_offset_in_bytesEv() #1 comdat align 2 {
  %1 = alloca %class.anon.114, align 1
  %2 = call noundef i64 @_ZZN5ArrayIP6MethodE20base_offset_in_bytesEvENKUlvE_clEv(ptr noundef nonnull align 1 dereferenceable(1) %1)
  %3 = trunc i64 %2 to i32
  ret i32 %3
}

; Function Attrs: mustprogress nounwind uwtable
define linkonce_odr hidden noundef ptr @_ZNK12ConstantPool9symbol_atEi(ptr noundef nonnull align 8 dereferenceable(68) %0, i32 noundef %1) #1 comdat align 2 {
  %3 = alloca ptr, align 8
  %4 = alloca i32, align 4
  store ptr %0, ptr %3, align 8
  store i32 %1, ptr %4, align 4
  %5 = load ptr, ptr %3, align 8
  %6 = load i32, ptr %4, align 4
  %7 = call noundef ptr @_ZNK12ConstantPool14symbol_at_addrEi(ptr noundef nonnull align 8 dereferenceable(68) %5, i32 noundef %6)
  %8 = load ptr, ptr %7, align 8
  ret ptr %8
}

; Function Attrs: mustprogress nounwind uwtable
define linkonce_odr hidden noundef zeroext i16 @_ZNK6Method10name_indexEv(ptr noundef nonnull align 8 dereferenceable(88) %0) #1 comdat align 2 {
  %2 = alloca ptr, align 8
  store ptr %0, ptr %2, align 8
  %3 = load ptr, ptr %2, align 8
  %4 = call noundef ptr @_ZNK6Method11constMethodEv(ptr noundef nonnull align 8 dereferenceable(88) %3)
  %5 = call noundef zeroext i16 @_ZNK11ConstMethod10name_indexEv(ptr noundef nonnull align 8 dereferenceable(52) %4)
  ret i16 %5
}

; Function Attrs: mustprogress nounwind uwtable
define linkonce_odr hidden noundef ptr @_ZNK6Method9constantsEv(ptr noundef nonnull align 8 dereferenceable(88) %0) #1 comdat align 2 {
  %2 = alloca ptr, align 8
  store ptr %0, ptr %2, align 8
  %3 = load ptr, ptr %2, align 8
  %4 = call noundef ptr @_ZNK6Method11constMethodEv(ptr noundef nonnull align 8 dereferenceable(88) %3)
  %5 = call noundef ptr @_ZNK11ConstMethod9constantsEv(ptr noundef nonnull align 8 dereferenceable(52) %4)
  ret ptr %5
}

; Function Attrs: mustprogress nounwind uwtable
define linkonce_odr hidden noundef ptr @_ZNK5ArrayIP6MethodE4dataEv(ptr noundef nonnull align 8 dereferenceable(16) %0) #1 comdat align 2 {
  %2 = alloca ptr, align 8
  store ptr %0, ptr %2, align 8
  %3 = load ptr, ptr %2, align 8
  %4 = call noundef i32 @_ZN5ArrayIP6MethodE20base_offset_in_bytesEv()
  %5 = sext i32 %4 to i64
  %6 = getelementptr inbounds i8, ptr %3, i64 %5
  ret ptr %6
}

; Function Attrs: mustprogress nounwind uwtable
define linkonce_odr hidden noundef i32 @_ZNK6Symbol12fast_compareEPKS_(ptr noundef nonnull align 4 dereferenceable(8) %0, ptr noundef %1) #1 comdat align 2 {
  %3 = alloca ptr, align 8
  %4 = alloca ptr, align 8
  store ptr %0, ptr %3, align 8
  store ptr %1, ptr %4, align 8
  %5 = load ptr, ptr %3, align 8
  %6 = ptrtoint ptr %5 to i64
  %7 = load ptr, ptr %4, align 8
  %8 = ptrtoint ptr %7 to i64
  %9 = icmp ult i64 %6, %8
  br i1 %9, label %10, label %11

10:                                               ; preds = %2
  br label %17

11:                                               ; preds = %2
  %12 = ptrtoint ptr %5 to i64
  %13 = load ptr, ptr %4, align 8
  %14 = ptrtoint ptr %13 to i64
  %15 = icmp eq i64 %12, %14
  %16 = select i1 %15, i32 0, i32 1
  br label %17

17:                                               ; preds = %11, %10
  %18 = phi i32 [ -1, %10 ], [ %16, %11 ]
  ret i32 %18
}

; Function Attrs: mustprogress nounwind uwtable
define hidden noundef i32 @_Z13linear_searchPK5ArrayIP6MethodEPK6Symbol(ptr noundef %0, ptr noundef %1) #1 {
  %3 = alloca i32, align 4
  %4 = alloca ptr, align 8
  %5 = alloca ptr, align 8
  %6 = alloca i32, align 4
  %7 = alloca i32, align 4
  %8 = alloca i32, align 4
  %9 = alloca ptr, align 8
  store ptr %0, ptr %4, align 8
  store ptr %1, ptr %5, align 8
  %10 = load ptr, ptr %4, align 8
  %11 = call noundef i32 @_ZNK5ArrayIP6MethodE6lengthEv(ptr noundef nonnull align 8 dereferenceable(16) %10)
  store i32 %11, ptr %6, align 4
  store i32 0, ptr %7, align 4
  %12 = load i32, ptr %6, align 4
  %13 = sub nsw i32 %12, 1
  store i32 %13, ptr %8, align 4
  br label %14

14:                                               ; preds = %28, %2
  %15 = load i32, ptr %7, align 4
  %16 = load i32, ptr %8, align 4
  %17 = icmp sle i32 %15, %16
  br i1 %17, label %18, label %31

18:                                               ; preds = %14
  %19 = load ptr, ptr %4, align 8
  %20 = load i32, ptr %7, align 4
  %21 = call noundef ptr @_ZNK5ArrayIP6MethodE2atEi(ptr noundef nonnull align 8 dereferenceable(16) %19, i32 noundef %20)
  store ptr %21, ptr %9, align 8
  %22 = load ptr, ptr %9, align 8
  %23 = call noundef ptr @_ZNK6Method4nameEv(ptr noundef nonnull align 8 dereferenceable(88) %22)
  %24 = load ptr, ptr %5, align 8
  %25 = icmp eq ptr %23, %24
  br i1 %25, label %26, label %28

26:                                               ; preds = %18
  %27 = load i32, ptr %7, align 4
  store i32 %27, ptr %3, align 4
  br label %32

28:                                               ; preds = %18
  %29 = load i32, ptr %7, align 4
  %30 = add nsw i32 %29, 1
  store i32 %30, ptr %7, align 4
  br label %14, !llvm.loop !50

31:                                               ; preds = %14
  store i32 -1, ptr %3, align 4
  br label %32

32:                                               ; preds = %31, %26
  %33 = load i32, ptr %3, align 4
  ret i32 %33
}

; Function Attrs: mustprogress nounwind uwtable
define linkonce_odr hidden noundef i32 @_ZNK5ArrayIP6MethodE6lengthEv(ptr noundef nonnull align 8 dereferenceable(16) %0) #1 comdat align 2 {
  %2 = alloca ptr, align 8
  store ptr %0, ptr %2, align 8
  %3 = load ptr, ptr %2, align 8
  %4 = getelementptr inbounds %class.Array.5, ptr %3, i32 0, i32 0
  %5 = load i32, ptr %4, align 8
  ret i32 %5
}

; Function Attrs: mustprogress nounwind uwtable
define linkonce_odr hidden noundef ptr @_ZNK6Method4nameEv(ptr noundef nonnull align 8 dereferenceable(88) %0) #1 comdat align 2 {
  %2 = alloca ptr, align 8
  store ptr %0, ptr %2, align 8
  %3 = load ptr, ptr %2, align 8
  %4 = call noundef ptr @_ZNK6Method9constantsEv(ptr noundef nonnull align 8 dereferenceable(88) %3)
  %5 = call noundef zeroext i16 @_ZNK6Method10name_indexEv(ptr noundef nonnull align 8 dereferenceable(88) %3)
  %6 = zext i16 %5 to i32
  %7 = call noundef ptr @_ZNK12ConstantPool9symbol_atEi(ptr noundef nonnull align 8 dereferenceable(68) %4, i32 noundef %6)
  ret ptr %7
}

; Function Attrs: mustprogress nounwind uwtable
define linkonce_odr hidden noundef ptr @_ZNK5ArrayIP6MethodE2atEi(ptr noundef nonnull align 8 dereferenceable(16) %0, i32 noundef %1) #1 comdat align 2 {
  %3 = alloca ptr, align 8
  %4 = alloca i32, align 4
  store ptr %0, ptr %3, align 8
  store i32 %1, ptr %4, align 4
  %5 = load ptr, ptr %3, align 8
  %6 = call noundef ptr @_ZNK5ArrayIP6MethodE4dataEv(ptr noundef nonnull align 8 dereferenceable(16) %5)
  %7 = load i32, ptr %4, align 4
  %8 = sext i32 %7 to i64
  %9 = getelementptr inbounds ptr, ptr %6, i64 %8
  %10 = load ptr, ptr %9, align 8
  ret ptr %10
}

; Function Attrs: mustprogress nounwind uwtable
define linkonce_odr hidden noundef i32 @_ZN13InstanceKlass12quick_searchEPK5ArrayIP6MethodEPK6Symbol(ptr noundef %0, ptr noundef %1) #1 comdat align 2 {
  %3 = alloca i32, align 4
  %4 = alloca ptr, align 8
  %5 = alloca ptr, align 8
  %6 = alloca i32, align 4
  %7 = alloca i32, align 4
  %8 = alloca i32, align 4
  %9 = alloca i32, align 4
  %10 = alloca ptr, align 8
  %11 = alloca i32, align 4
  store ptr %0, ptr %4, align 8
  store ptr %1, ptr %5, align 8
  %12 = load i8, ptr @_ZN13InstanceKlass29_disable_method_binary_searchE, align 1
  %13 = trunc i8 %12 to i1
  br i1 %13, label %14, label %18

14:                                               ; preds = %2
  %15 = load ptr, ptr %4, align 8
  %16 = load ptr, ptr %5, align 8
  %17 = call noundef i32 @_Z13linear_searchPK5ArrayIP6MethodEPK6Symbol(ptr noundef %15, ptr noundef %16)
  store i32 %17, ptr %3, align 4
  br label %55

18:                                               ; preds = %2
  %19 = load ptr, ptr %4, align 8
  %20 = call noundef i32 @_ZNK5ArrayIP6MethodE6lengthEv(ptr noundef nonnull align 8 dereferenceable(16) %19)
  store i32 %20, ptr %6, align 4
  store i32 0, ptr %7, align 4
  %21 = load i32, ptr %6, align 4
  %22 = sub nsw i32 %21, 1
  store i32 %22, ptr %8, align 4
  br label %23

23:                                               ; preds = %53, %18
  %24 = load i32, ptr %7, align 4
  %25 = load i32, ptr %8, align 4
  %26 = icmp sle i32 %24, %25
  br i1 %26, label %27, label %54

27:                                               ; preds = %23
  %28 = load i32, ptr %7, align 4
  %29 = load i32, ptr %8, align 4
  %30 = add nsw i32 %28, %29
  %31 = ashr i32 %30, 1
  store i32 %31, ptr %9, align 4
  %32 = load ptr, ptr %4, align 8
  %33 = load i32, ptr %9, align 4
  %34 = call noundef ptr @_ZNK5ArrayIP6MethodE2atEi(ptr noundef nonnull align 8 dereferenceable(16) %32, i32 noundef %33)
  store ptr %34, ptr %10, align 8
  %35 = load ptr, ptr %10, align 8
  %36 = call noundef ptr @_ZNK6Method4nameEv(ptr noundef nonnull align 8 dereferenceable(88) %35)
  %37 = load ptr, ptr %5, align 8
  %38 = call noundef i32 @_ZNK6Symbol12fast_compareEPKS_(ptr noundef nonnull align 4 dereferenceable(8) %36, ptr noundef %37)
  store i32 %38, ptr %11, align 4
  %39 = load i32, ptr %11, align 4
  %40 = icmp eq i32 %39, 0
  br i1 %40, label %41, label %43

41:                                               ; preds = %27
  %42 = load i32, ptr %9, align 4
  store i32 %42, ptr %3, align 4
  br label %55

43:                                               ; preds = %27
  %44 = load i32, ptr %11, align 4
  %45 = icmp slt i32 %44, 0
  br i1 %45, label %46, label %49

46:                                               ; preds = %43
  %47 = load i32, ptr %9, align 4
  %48 = add nsw i32 %47, 1
  store i32 %48, ptr %7, align 4
  br label %52

49:                                               ; preds = %43
  %50 = load i32, ptr %9, align 4
  %51 = sub nsw i32 %50, 1
  store i32 %51, ptr %8, align 4
  br label %52

52:                                               ; preds = %49, %46
  br label %53

53:                                               ; preds = %52
  br label %23, !llvm.loop !53

54:                                               ; preds = %23
  store i32 -1, ptr %3, align 4
  br label %55

55:                                               ; preds = %54, %41, %14
  %56 = load i32, ptr %3, align 4
  ret i32 %56
}

; Function Attrs: mustprogress nounwind uwtable
define hidden noundef i32 @_ZN13InstanceKlass19find_method_by_nameEPK5ArrayIP6MethodEPK6SymbolPi(ptr noundef %0, ptr noundef %1, ptr noundef %2) #1 align 2 {
  %4 = alloca i32, align 4
  %5 = alloca ptr, align 8
  %6 = alloca ptr, align 8
  %7 = alloca ptr, align 8
  %8 = alloca i32, align 4
  %9 = alloca i32, align 4
  store ptr %0, ptr %5, align 8
  store ptr %1, ptr %6, align 8
  store ptr %2, ptr %7, align 8
  %10 = load ptr, ptr %5, align 8
  %11 = load ptr, ptr %6, align 8
  %12 = call noundef i32 @_ZN13InstanceKlass12quick_searchEPK5ArrayIP6MethodEPK6Symbol(ptr noundef %10, ptr noundef %11)
  store i32 %12, ptr %8, align 4
  %13 = load i32, ptr %8, align 4
  %14 = add nsw i32 %13, 1
  store i32 %14, ptr %9, align 4
  %15 = load i32, ptr %8, align 4
  %16 = icmp ne i32 %15, -1
  br i1 %16, label %17, label %57

17:                                               ; preds = %3
  br label %18

18:                                               ; preds = %32, %17
  %19 = load i32, ptr %8, align 4
  %20 = sub nsw i32 %19, 1
  %21 = icmp sge i32 %20, 0
  br i1 %21, label %22, label %30

22:                                               ; preds = %18
  %23 = load ptr, ptr %5, align 8
  %24 = load i32, ptr %8, align 4
  %25 = sub nsw i32 %24, 1
  %26 = call noundef ptr @_ZNK5ArrayIP6MethodE2atEi(ptr noundef nonnull align 8 dereferenceable(16) %23, i32 noundef %25)
  %27 = call noundef ptr @_ZNK6Method4nameEv(ptr noundef nonnull align 8 dereferenceable(88) %26)
  %28 = load ptr, ptr %6, align 8
  %29 = icmp eq ptr %27, %28
  br label %30

30:                                               ; preds = %22, %18
  %31 = phi i1 [ false, %18 ], [ %29, %22 ]
  br i1 %31, label %32, label %35

32:                                               ; preds = %30
  %33 = load i32, ptr %8, align 4
  %34 = add nsw i32 %33, -1
  store i32 %34, ptr %8, align 4
  br label %18, !llvm.loop !54

35:                                               ; preds = %30
  br label %36

36:                                               ; preds = %50, %35
  %37 = load i32, ptr %9, align 4
  %38 = load ptr, ptr %5, align 8
  %39 = call noundef i32 @_ZNK5ArrayIP6MethodE6lengthEv(ptr noundef nonnull align 8 dereferenceable(16) %38)
  %40 = icmp slt i32 %37, %39
  br i1 %40, label %41, label %48

41:                                               ; preds = %36
  %42 = load ptr, ptr %5, align 8
  %43 = load i32, ptr %9, align 4
  %44 = call noundef ptr @_ZNK5ArrayIP6MethodE2atEi(ptr noundef nonnull align 8 dereferenceable(16) %42, i32 noundef %43)
  %45 = call noundef ptr @_ZNK6Method4nameEv(ptr noundef nonnull align 8 dereferenceable(88) %44)
  %46 = load ptr, ptr %6, align 8
  %47 = icmp eq ptr %45, %46
  br label %48

48:                                               ; preds = %41, %36
  %49 = phi i1 [ false, %36 ], [ %47, %41 ]
  br i1 %49, label %50, label %53

50:                                               ; preds = %48
  %51 = load i32, ptr %9, align 4
  %52 = add nsw i32 %51, 1
  store i32 %52, ptr %9, align 4
  br label %36, !llvm.loop !55

53:                                               ; preds = %48
  %54 = load i32, ptr %9, align 4
  %55 = load ptr, ptr %7, align 8
  store i32 %54, ptr %55, align 4
  %56 = load i32, ptr %8, align 4
  store i32 %56, ptr %4, align 4
  br label %58

57:                                               ; preds = %3
  store i32 -1, ptr %4, align 4
  br label %58

58:                                               ; preds = %57, %53
  %59 = load i32, ptr %4, align 4
  ret i32 %59
}

; Function Attrs: mustprogress nounwind uwtable
define linkonce_odr hidden noundef ptr @_ZNK13InstanceKlass7methodsEv(ptr noundef nonnull align 8 dereferenceable(464) %0) #1 comdat align 2 {
  %2 = alloca ptr, align 8
  store ptr %0, ptr %2, align 8
  %3 = load ptr, ptr %2, align 8
  %4 = getelementptr inbounds %class.InstanceKlass, ptr %3, i32 0, i32 35
  %5 = load ptr, ptr %4, align 8
  ret ptr %5
}

; Function Attrs: mustprogress nounwind uwtable
define hidden noundef i32 @_ZNK13InstanceKlass19find_method_by_nameEPK6SymbolPi(ptr noundef nonnull align 8 dereferenceable(464) %0, ptr noundef %1, ptr noundef %2) #1 align 2 {
  %4 = alloca ptr, align 8
  %5 = alloca ptr, align 8
  %6 = alloca ptr, align 8
  store ptr %0, ptr %4, align 8
  store ptr %1, ptr %5, align 8
  store ptr %2, ptr %6, align 8
  %7 = load ptr, ptr %4, align 8
  %8 = call noundef ptr @_ZNK13InstanceKlass7methodsEv(ptr noundef nonnull align 8 dereferenceable(464) %7)
  %9 = load ptr, ptr %5, align 8
  %10 = load ptr, ptr %6, align 8
  %11 = call noundef i32 @_ZN13InstanceKlass19find_method_by_nameEPK5ArrayIP6MethodEPK6SymbolPi(ptr noundef %8, ptr noundef %9, ptr noundef %10)
  ret i32 %11
}