; Function Attrs: mustprogress nofree norecurse nosync nounwind memory(read, argmem: readwrite, inaccessiblemem: none) uwtable
define hidden noundef i32 @_ZNK13InstanceKlass19find_method_by_nameEPK6SymbolPi(ptr nocapture noundef nonnull readonly align 8 dereferenceable(464) %0, ptr noundef readnone %1, ptr nocapture noundef writeonly %2) local_unnamed_addr #9 align 2 {
  %4 = getelementptr inbounds i8, ptr %0, i64 400
  %5 = load ptr, ptr %4, align 8
  %6 = load i8, ptr @_ZN13InstanceKlass29_disable_method_binary_searchE, align 1
  %7 = trunc i8 %6 to i1
  %8 = load i32, ptr %5, align 8
  br i1 %7, label %9, label %25

9:                                                ; preds = %3
  %10 = getelementptr inbounds i8, ptr %5, i64 8
  %.not.not11.i.i.i = icmp sgt i32 %8, 0
  br i1 %.not.not11.i.i.i, label %.lr.ph.preheader.i.i.i, label %_ZN13InstanceKlass19find_method_by_nameEPK5ArrayIP6MethodEPK6SymbolPi.exit

.lr.ph.preheader.i.i.i:                           ; preds = %9
  %wide.trip.count.i.i.i = zext nneg i32 %8 to i64
  br label %.lr.ph.i.i.i

.lr.ph.i.i.i:                                     ; preds = %24, %.lr.ph.preheader.i.i.i
  %indvars.iv.i.i.i = phi i64 [ 0, %.lr.ph.preheader.i.i.i ], [ %indvars.iv.next.i.i.i, %24 ]
  %11 = getelementptr inbounds ptr, ptr %10, i64 %indvars.iv.i.i.i
  %12 = load ptr, ptr %11, align 8
  %13 = getelementptr inbounds i8, ptr %12, i64 8
  %14 = load ptr, ptr %13, align 8
  %15 = getelementptr inbounds i8, ptr %14, i64 8
  %16 = load ptr, ptr %15, align 8
  %17 = getelementptr inbounds i8, ptr %14, i64 36
  %18 = load i16, ptr %17, align 4
  %19 = getelementptr inbounds i8, ptr %16, i64 72
  %20 = zext i16 %18 to i64
  %21 = getelementptr inbounds i64, ptr %19, i64 %20
  %22 = load ptr, ptr %21, align 8
  %23 = icmp eq ptr %22, %1
  br i1 %23, label %_ZN13InstanceKlass12quick_searchEPK5ArrayIP6MethodEPK6Symbol.exit.i, label %24

24:                                               ; preds = %.lr.ph.i.i.i
  %indvars.iv.next.i.i.i = add nuw nsw i64 %indvars.iv.i.i.i, 1
  %exitcond.not.i.i.i = icmp eq i64 %indvars.iv.next.i.i.i, %wide.trip.count.i.i.i
  br i1 %exitcond.not.i.i.i, label %_ZN13InstanceKlass19find_method_by_nameEPK5ArrayIP6MethodEPK6SymbolPi.exit, label %.lr.ph.i.i.i, !llvm.loop !56

25:                                               ; preds = %3
  %.not25.i.i = icmp slt i32 %8, 1
  br i1 %.not25.i.i, label %_ZN13InstanceKlass19find_method_by_nameEPK5ArrayIP6MethodEPK6SymbolPi.exit, label %.lr.ph.i.i

.lr.ph.i.i:                                       ; preds = %25
  %26 = add nsw i32 %8, -1
  %27 = getelementptr inbounds i8, ptr %5, i64 8
  br label %28

28:                                               ; preds = %44, %.lr.ph.i.i
  %.01727.i.i = phi i32 [ 0, %.lr.ph.i.i ], [ %.1.i.i, %44 ]
  %.01826.i.i = phi i32 [ %26, %.lr.ph.i.i ], [ %.119.i.i, %44 ]
  %29 = add nuw nsw i32 %.01826.i.i, %.01727.i.i
  %30 = lshr i32 %29, 1
  %31 = zext nneg i32 %30 to i64
  %32 = getelementptr inbounds ptr, ptr %27, i64 %31
  %33 = load ptr, ptr %32, align 8
  %34 = getelementptr inbounds i8, ptr %33, i64 8
  %35 = load ptr, ptr %34, align 8
  %36 = getelementptr inbounds i8, ptr %35, i64 8
  %37 = load ptr, ptr %36, align 8
  %38 = getelementptr inbounds i8, ptr %35, i64 36
  %39 = load i16, ptr %38, align 4
  %40 = getelementptr inbounds i8, ptr %37, i64 72
  %41 = zext i16 %39 to i64
  %42 = getelementptr inbounds i64, ptr %40, i64 %41
  %43 = load ptr, ptr %42, align 8
  %.not21.i.i = icmp eq ptr %43, %1
  br i1 %.not21.i.i, label %.preheader.i, label %44

44:                                               ; preds = %28
  %.not22.i.i = icmp ult ptr %43, %1
  %45 = add nuw nsw i32 %30, 1
  %46 = add nsw i32 %30, -1
  %.119.i.i = select i1 %.not22.i.i, i32 %.01826.i.i, i32 %46
  %.1.i.i = select i1 %.not22.i.i, i32 %45, i32 %.01727.i.i
  %.not.i.i = icmp sgt i32 %.1.i.i, %.119.i.i
  br i1 %.not.i.i, label %_ZN13InstanceKlass19find_method_by_nameEPK5ArrayIP6MethodEPK6SymbolPi.exit, label %28, !llvm.loop !57

_ZN13InstanceKlass12quick_searchEPK5ArrayIP6MethodEPK6Symbol.exit.i: ; preds = %.lr.ph.i.i.i
  %47 = trunc nuw nsw i64 %indvars.iv.i.i.i to i32
  %.pre = and i64 %indvars.iv.i.i.i, 4294967295
  br label %.preheader.i

.preheader.i:                                     ; preds = %28, %_ZN13InstanceKlass12quick_searchEPK5ArrayIP6MethodEPK6Symbol.exit.i
  %.pre-phi = phi i64 [ %.pre, %_ZN13InstanceKlass12quick_searchEPK5ArrayIP6MethodEPK6Symbol.exit.i ], [ %31, %28 ]
  %.0.i39.i = phi i32 [ %47, %_ZN13InstanceKlass12quick_searchEPK5ArrayIP6MethodEPK6Symbol.exit.i ], [ %30, %28 ]
  %48 = getelementptr inbounds i8, ptr %5, i64 8
  br label %49

49:                                               ; preds = %51, %.preheader.i
  %indvars.iv.i = phi i64 [ %.pre-phi, %.preheader.i ], [ %indvars.iv.next.i, %51 ]
  %50 = icmp sgt i64 %indvars.iv.i, 0
  br i1 %50, label %51, label %.critedge.i

51:                                               ; preds = %49
  %indvars.iv.next.i = add nsw i64 %indvars.iv.i, -1
  %52 = getelementptr ptr, ptr %5, i64 %indvars.iv.i
  %53 = load ptr, ptr %52, align 8
  %54 = getelementptr inbounds i8, ptr %53, i64 8
  %55 = load ptr, ptr %54, align 8
  %56 = getelementptr inbounds i8, ptr %55, i64 8
  %57 = load ptr, ptr %56, align 8
  %58 = getelementptr inbounds i8, ptr %55, i64 36
  %59 = load i16, ptr %58, align 4
  %60 = getelementptr inbounds i8, ptr %57, i64 72
  %61 = zext i16 %59 to i64
  %62 = getelementptr inbounds i64, ptr %60, i64 %61
  %63 = load ptr, ptr %62, align 8
  %64 = icmp eq ptr %63, %1
  br i1 %64, label %49, label %.critedge.split.loop.exit43.i, !llvm.loop !60

.critedge.split.loop.exit43.i:                    ; preds = %51
  %65 = trunc nuw nsw i64 %indvars.iv.i to i32
  br label %.critedge.i

.critedge.i:                                      ; preds = %49, %.critedge.split.loop.exit43.i
  %.020.lcssa.i = phi i32 [ %65, %.critedge.split.loop.exit43.i ], [ 0, %49 ]
  %66 = sext i32 %8 to i64
  %67 = add nuw i32 %.0.i39.i, 1
  %smax.i = tail call i32 @llvm.smax.i32(i32 %8, i32 %67)
  br label %68

68:                                               ; preds = %70, %.critedge.i
  %indvars.iv33.i = phi i64 [ %indvars.iv.next34.i, %70 ], [ %.pre-phi, %.critedge.i ]
  %indvars.iv.next34.i = add nuw nsw i64 %indvars.iv33.i, 1
  %69 = icmp slt i64 %indvars.iv.next34.i, %66
  br i1 %69, label %70, label %.critedge2.i

70:                                               ; preds = %68
  %71 = getelementptr inbounds ptr, ptr %48, i64 %indvars.iv.next34.i
  %72 = load ptr, ptr %71, align 8
  %73 = getelementptr inbounds i8, ptr %72, i64 8
  %74 = load ptr, ptr %73, align 8
  %75 = getelementptr inbounds i8, ptr %74, i64 8
  %76 = load ptr, ptr %75, align 8
  %77 = getelementptr inbounds i8, ptr %74, i64 36
  %78 = load i16, ptr %77, align 4
  %79 = getelementptr inbounds i8, ptr %76, i64 72
  %80 = zext i16 %78 to i64
  %81 = getelementptr inbounds i64, ptr %79, i64 %80
  %82 = load ptr, ptr %81, align 8
  %83 = icmp eq ptr %82, %1
  br i1 %83, label %68, label %.critedge2.split.loop.exit45.i, !llvm.loop !61

.critedge2.split.loop.exit45.i:                   ; preds = %70
  %84 = trunc nsw i64 %indvars.iv.next34.i to i32
  br label %.critedge2.i

.critedge2.i:                                     ; preds = %68, %.critedge2.split.loop.exit45.i
  %.0.lcssa.i = phi i32 [ %84, %.critedge2.split.loop.exit45.i ], [ %smax.i, %68 ]
  store i32 %.0.lcssa.i, ptr %2, align 4
  br label %_ZN13InstanceKlass19find_method_by_nameEPK5ArrayIP6MethodEPK6SymbolPi.exit

_ZN13InstanceKlass19find_method_by_nameEPK5ArrayIP6MethodEPK6SymbolPi.exit: ; preds = %44, %24, %9, %25, %.critedge2.i
  %.021.i = phi i32 [ %.020.lcssa.i, %.critedge2.i ], [ -1, %9 ], [ -1, %25 ], [ -1, %24 ], [ -1, %44 ]
  ret i32 %.021.i
}